; Function Attrs: mustprogress uwtable
define noundef i32 @_ZN3zmq12wss_engine_t5writeEPKvm(ptr noundef nonnull readonly align 8 captures(none) dereferenceable(25720) %0, ptr noundef %1, i64 noundef %2) unnamed_addr #0 align 2 {
  %4 = getelementptr inbounds nuw i8, ptr %0, i64 25712
  %5 = load ptr, ptr %4, align 8, !tbaa !82
  %6 = tail call i64 @gnutls_record_send(ptr noundef %5, ptr noundef %1, i64 noundef %2)
  switch i64 %6, label %7 [
    i64 -28, label %13
    i64 -52, label %13
  ]

7:                                                ; preds = %3
  %8 = icmp slt i64 %6, 0
  br i1 %8, label %9, label %11

9:                                                ; preds = %7
  %10 = tail call ptr @__errno_location() #16
  store i32 22, ptr %10, align 4, !tbaa !83
  br label %13

11:                                               ; preds = %7
  %12 = trunc i64 %6 to i32
  br label %13

13:                                               ; preds = %3, %3, %11, %9
  %.0 = phi i32 [ -1, %9 ], [ %12, %11 ], [ 0, %3 ], [ 0, %3 ]
  ret i32 %.0
}